target datalayout = "e-m:e-p270:32:32-p271:32:32-p272:64:64-i64:64-i128:128-f80:128-n8:16:32:64-S128"
target triple = "x86_64-unknown-linux-gnu"

%"class.std::__cxx11::basic_string" = type { %"struct.std::__cxx11::basic_string<char>::_Alloc_hider", i64, %union.anon }
%"struct.std::__cxx11::basic_string<char>::_Alloc_hider" = type { ptr }
%union.anon = type { i64, [8 x i8] }
%"class.std::allocator" = type { i8 }

@.str = private unnamed_addr constant [2 x i8] c"_\00", align 1
@.str.49 = private unnamed_addr constant [50 x i8] c"basic_string: construction from null is not valid\00", align 1

; Function Attrs: mustprogress nounwind uwtable
define linkonce_odr hidden noundef i64 @_ZNSt11char_traitsIcE6lengthEPKc(ptr noundef %__s) #4 comdat align 2 {
entry:
  %__s.addr = alloca ptr, align 8
  store ptr %__s, ptr %__s.addr, align 8
  %0 = load ptr, ptr %__s.addr, align 8
  %call = call i64 @strlen(ptr noundef %0) #3
  ret i64 %call
}

; Function Attrs: mustprogress nounwind uwtable
define linkonce_odr hidden void @_ZNSt7__cxx1112basic_stringIcSt11char_traitsIcESaIcEE12_Alloc_hiderD2Ev(ptr noundef nonnull align 8 dereferenceable(8) %this) unnamed_addr #4 comdat align 2 {
entry:
  %this.addr = alloca ptr, align 8
  store ptr %this, ptr %this.addr, align 8
  %this1 = load ptr, ptr %this.addr, align 8
  call void @_ZNSaIcED2Ev(ptr noundef nonnull align 1 dereferenceable(1) %this1) #3
  ret void
}

; Function Attrs: mustprogress uwtable
define linkonce_odr hidden void @_ZNSt7__cxx1112basic_stringIcSt11char_traitsIcESaIcEEC2IS3_EEPKcRKS3_(ptr noundef nonnull align 8 dereferenceable(32) %this, ptr noundef %__s, ptr noundef nonnull align 1 dereferenceable(1) %__a) unnamed_addr #5 comdat align 2 personality ptr @__gxx_personality_v0 {
entry:
  %this.addr = alloca ptr, align 8
  %__s.addr = alloca ptr, align 8
  %__a.addr = alloca ptr, align 8
  %exn.slot = alloca ptr, align 8
  %ehselector.slot = alloca i32, align 4
  %__end = alloca ptr, align 8
  store ptr %this, ptr %this.addr, align 8
  store ptr %__s, ptr %__s.addr, align 8
  store ptr %__a, ptr %__a.addr, align 8
  %this1 = load ptr, ptr %this.addr, align 8
  %_M_dataplus = getelementptr inbounds %"class.std::__cxx11::basic_string", ptr %this1, i32 0, i32 0
  %call = call noundef ptr @_ZNSt7__cxx1112basic_stringIcSt11char_traitsIcESaIcEE13_M_local_dataEv(ptr noundef nonnull align 8 dereferenceable(32) %this1)
  %0 = load ptr, ptr %__a.addr, align 8
  call void @_ZNSt7__cxx1112basic_stringIcSt11char_traitsIcESaIcEE12_Alloc_hiderC1EPcRKS3_(ptr noundef nonnull align 8 dereferenceable(8) %_M_dataplus, ptr noundef %call, ptr noundef nonnull align 1 dereferenceable(1) %0)
  %1 = load ptr, ptr %__s.addr, align 8
  %cmp = icmp eq ptr %1, null
  br i1 %cmp, label %if.then, label %if.end

if.then:                                          ; preds = %entry
  invoke void @_ZSt19__throw_logic_errorPKc(ptr noundef @.str.49) #15
          to label %invoke.cont unwind label %lpad

invoke.cont:                                      ; preds = %if.then
  unreachable

lpad:                                             ; preds = %invoke.cont2, %if.end, %if.then
  %2 = landingpad { ptr, i32 }
          cleanup
  %3 = extractvalue { ptr, i32 } %2, 0
  store ptr %3, ptr %exn.slot, align 8
  %4 = extractvalue { ptr, i32 } %2, 1
  store i32 %4, ptr %ehselector.slot, align 4
  call void @_ZNSt7__cxx1112basic_stringIcSt11char_traitsIcESaIcEE12_Alloc_hiderD2Ev(ptr noundef nonnull align 8 dereferenceable(8) %_M_dataplus) #3
  br label %eh.resume

if.end:                                           ; preds = %entry
  %5 = load ptr, ptr %__s.addr, align 8
  %6 = load ptr, ptr %__s.addr, align 8
  %call3 = invoke noundef i64 @_ZNSt11char_traitsIcE6lengthEPKc(ptr noundef %6)
          to label %invoke.cont2 unwind label %lpad

invoke.cont2:                                     ; preds = %if.end
  %add.ptr = getelementptr inbounds i8, ptr %5, i64 %call3
  store ptr %add.ptr, ptr %__end, align 8
  %7 = load ptr, ptr %__s.addr, align 8
  %8 = load ptr, ptr %__end, align 8
  invoke void @_ZNSt7__cxx1112basic_stringIcSt11char_traitsIcESaIcEE12_M_constructIPKcEEvT_S8_St20forward_iterator_tag(ptr noundef nonnull align 8 dereferenceable(32) %this1, ptr noundef %7, ptr noundef %8)
          to label %invoke.cont4 unwind label %lpad

invoke.cont4:                                     ; preds = %invoke.cont2
  ret void

eh.resume:                                        ; preds = %lpad
  %exn = load ptr, ptr %exn.slot, align 8
  %sel = load i32, ptr %ehselector.slot, align 4
  %lpad.val = insertvalue { ptr, i32 } poison, ptr %exn, 0
  %lpad.val5 = insertvalue { ptr, i32 } %lpad.val, i32 %sel, 1
  resume { ptr, i32 } %lpad.val5
}

; Function Attrs: mustprogress uwtable
define hidden void @_Z15norm_param_nameB5cxx11PKc(ptr noalias sret(%"class.std::__cxx11::basic_string") align 8 %agg.result, ptr noundef %n) #5 personality ptr @__gxx_personality_v0 {
entry:
  %result.ptr = alloca ptr, align 8
  %n.addr = alloca ptr, align 8
  %r = alloca %"class.std::__cxx11::basic_string", align 8
  %ref.tmp = alloca %"class.std::allocator", align 1
  %exn.slot = alloca ptr, align 8
  %ehselector.slot = alloca i32, align 4
  %sz = alloca i32, align 4
  %ref.tmp4 = alloca %"class.std::allocator", align 1
  %cleanup.dest.slot = alloca i32, align 4
  %i = alloca i32, align 4
  %curr = alloca i8, align 1
  store ptr %agg.result, ptr %result.ptr, align 8
  store ptr %n, ptr %n.addr, align 8
  %0 = load ptr, ptr %n.addr, align 8
  %1 = load i8, ptr %0, align 1
  %conv = sext i8 %1 to i32
  %cmp = icmp eq i32 %conv, 58
  br i1 %cmp, label %if.then, label %if.end

if.then:                                          ; preds = %entry
  %2 = load ptr, ptr %n.addr, align 8
  %incdec.ptr = getelementptr inbounds i8, ptr %2, i32 1
  store ptr %incdec.ptr, ptr %n.addr, align 8
  br label %if.end

if.end:                                           ; preds = %if.then, %entry
  %3 = load ptr, ptr %n.addr, align 8
  call void @_ZNSaIcEC1Ev(ptr noundef nonnull align 1 dereferenceable(1) %ref.tmp) #3
  invoke void @_ZNSt7__cxx1112basic_stringIcSt11char_traitsIcESaIcEEC2IS3_EEPKcRKS3_(ptr noundef nonnull align 8 dereferenceable(32) %r, ptr noundef %3, ptr noundef nonnull align 1 dereferenceable(1) %ref.tmp)
          to label %invoke.cont unwind label %lpad

invoke.cont:                                      ; preds = %if.end
  call void @_ZNSaIcED1Ev(ptr noundef nonnull align 1 dereferenceable(1) %ref.tmp) #3
  %call = call noundef i64 @_ZNKSt7__cxx1112basic_stringIcSt11char_traitsIcESaIcEE4sizeEv(ptr noundef nonnull align 8 dereferenceable(32) %r) #3
  %conv1 = trunc i64 %call to i32
  store i32 %conv1, ptr %sz, align 4
  %4 = load i32, ptr %sz, align 4
  %cmp2 = icmp eq i32 %4, 0
  br i1 %cmp2, label %if.then3, label %if.end7

if.then3:                                         ; preds = %invoke.cont
  call void @_ZNSaIcEC1Ev(ptr noundef nonnull align 1 dereferenceable(1) %ref.tmp4) #3
  invoke void @_ZNSt7__cxx1112basic_stringIcSt11char_traitsIcESaIcEEC2IS3_EEPKcRKS3_(ptr noundef nonnull align 8 dereferenceable(32) %agg.result, ptr noundef @.str, ptr noundef nonnull align 1 dereferenceable(1) %ref.tmp4)
          to label %invoke.cont6 unwind label %lpad5

invoke.cont6:                                     ; preds = %if.then3
  call void @_ZNSaIcED1Ev(ptr noundef nonnull align 1 dereferenceable(1) %ref.tmp4) #3
  store i32 1, ptr %cleanup.dest.slot, align 4
  br label %cleanup

lpad:                                             ; preds = %if.end
  %5 = landingpad { ptr, i32 }
          cleanup
  %6 = extractvalue { ptr, i32 } %5, 0
  store ptr %6, ptr %exn.slot, align 8
  %7 = extractvalue { ptr, i32 } %5, 1
  store i32 %7, ptr %ehselector.slot, align 4
  call void @_ZNSaIcED1Ev(ptr noundef nonnull align 1 dereferenceable(1) %ref.tmp) #3
  br label %eh.resume

lpad5:                                            ; preds = %if.then3
  %8 = landingpad { ptr, i32 }
          cleanup
  %9 = extractvalue { ptr, i32 } %8, 0
  store ptr %9, ptr %exn.slot, align 8
  %10 = extractvalue { ptr, i32 } %8, 1
  store i32 %10, ptr %ehselector.slot, align 4
  call void @_ZNSaIcED1Ev(ptr noundef nonnull align 1 dereferenceable(1) %ref.tmp4) #3
  br label %ehcleanup

if.end7:                                          ; preds = %invoke.cont
  store i32 0, ptr %i, align 4
  br label %for.cond

for.cond:                                         ; preds = %for.inc, %if.end7
  %11 = load i32, ptr %i, align 4
  %12 = load i32, ptr %sz, align 4
  %cmp8 = icmp ult i32 %11, %12
  br i1 %cmp8, label %for.body, label %for.end

for.body:                                         ; preds = %for.cond
  %13 = load i32, ptr %i, align 4
  %conv9 = zext i32 %13 to i64
  %call12 = invoke noundef nonnull align 1 dereferenceable(1) ptr @_ZNSt7__cxx1112basic_stringIcSt11char_traitsIcESaIcEEixEm(ptr noundef nonnull align 8 dereferenceable(32) %r, i64 noundef %conv9)
          to label %invoke.cont11 unwind label %lpad10

invoke.cont11:                                    ; preds = %for.body
  %14 = load i8, ptr %call12, align 1
  store i8 %14, ptr %curr, align 1
  %15 = load i8, ptr %curr, align 1
  %conv13 = sext i8 %15 to i32
  %cmp14 = icmp sle i32 65, %conv13
  br i1 %cmp14, label %land.lhs.true, label %if.else

land.lhs.true:                                    ; preds = %invoke.cont11
  %16 = load i8, ptr %curr, align 1
  %conv15 = sext i8 %16 to i32
  %cmp16 = icmp sle i32 %conv15, 90
  br i1 %cmp16, label %if.then17, label %if.else

if.then17:                                        ; preds = %land.lhs.true
  %17 = load i8, ptr %curr, align 1
  %conv18 = sext i8 %17 to i32
  %sub = sub nsw i32 %conv18, 65
  %add = add nsw i32 %sub, 97
  %conv19 = trunc i32 %add to i8
  %18 = load i32, ptr %i, align 4
  %conv20 = zext i32 %18 to i64
  %call22 = invoke noundef nonnull align 1 dereferenceable(1) ptr @_ZNSt7__cxx1112basic_stringIcSt11char_traitsIcESaIcEEixEm(ptr noundef nonnull align 8 dereferenceable(32) %r, i64 noundef %conv20)
          to label %invoke.cont21 unwind label %lpad10

invoke.cont21:                                    ; preds = %if.then17
  store i8 %conv19, ptr %call22, align 1
  br label %if.end32

lpad10:                                           ; preds = %if.then27, %if.then17, %for.body
  %19 = landingpad { ptr, i32 }
          cleanup
  %20 = extractvalue { ptr, i32 } %19, 0
  store ptr %20, ptr %exn.slot, align 8
  %21 = extractvalue { ptr, i32 } %19, 1
  store i32 %21, ptr %ehselector.slot, align 4
  br label %ehcleanup

if.else:                                          ; preds = %land.lhs.true, %invoke.cont11
  %22 = load i8, ptr %curr, align 1
  %conv23 = sext i8 %22 to i32
  %cmp24 = icmp eq i32 %conv23, 45
  br i1 %cmp24, label %if.then27, label %lor.lhs.false

lor.lhs.false:                                    ; preds = %if.else
  %23 = load i8, ptr %curr, align 1
  %conv25 = sext i8 %23 to i32
  %cmp26 = icmp eq i32 %conv25, 58
  br i1 %cmp26, label %if.then27, label %if.end31

if.then27:                                        ; preds = %lor.lhs.false, %if.else
  %24 = load i32, ptr %i, align 4
  %conv28 = zext i32 %24 to i64
  %call30 = invoke noundef nonnull align 1 dereferenceable(1) ptr @_ZNSt7__cxx1112basic_stringIcSt11char_traitsIcESaIcEEixEm(ptr noundef nonnull align 8 dereferenceable(32) %r, i64 noundef %conv28)
          to label %invoke.cont29 unwind label %lpad10

invoke.cont29:                                    ; preds = %if.then27
  store i8 95, ptr %call30, align 1
  br label %if.end31

if.end31:                                         ; preds = %invoke.cont29, %lor.lhs.false
  br label %if.end32

if.end32:                                         ; preds = %if.end31, %invoke.cont21
  br label %for.inc

for.inc:                                          ; preds = %if.end32
  %25 = load i32, ptr %i, align 4
  %inc = add i32 %25, 1
  store i32 %inc, ptr %i, align 4
  br label %for.cond, !llvm.loop !4

for.end:                                          ; preds = %for.cond
  call void @_ZNSt7__cxx1112basic_stringIcSt11char_traitsIcESaIcEEC1EOS4_(ptr noundef nonnull align 8 dereferenceable(32) %agg.result, ptr noundef nonnull align 8 dereferenceable(32) %r) #3
  store i32 1, ptr %cleanup.dest.slot, align 4
  br label %cleanup

cleanup:                                          ; preds = %for.end, %invoke.cont6
  call void @_ZNSt7__cxx1112basic_stringIcSt11char_traitsIcESaIcEED1Ev(ptr noundef nonnull align 8 dereferenceable(32) %r) #3
  ret void

ehcleanup:                                        ; preds = %lpad10, %lpad5
  call void @_ZNSt7__cxx1112basic_stringIcSt11char_traitsIcESaIcEED1Ev(ptr noundef nonnull align 8 dereferenceable(32) %r) #3
  br label %eh.resume

eh.resume:                                        ; preds = %ehcleanup, %lpad
  %exn = load ptr, ptr %exn.slot, align 8
  %sel = load i32, ptr %ehselector.slot, align 4
  %lpad.val = insertvalue { ptr, i32 } poison, ptr %exn, 0
  %lpad.val33 = insertvalue { ptr, i32 } %lpad.val, i32 %sel, 1
  resume { ptr, i32 } %lpad.val33
}