; Function Attrs: mustprogress uwtable
define hidden void @_Z15norm_param_nameB5cxx11PKc(ptr noalias sret(%"class.std::__cxx11::basic_string") align 8 %agg.result, ptr noundef %n) local_unnamed_addr #3 personality ptr @__gxx_personality_v0 {
entry:
  %r = alloca %"class.std::__cxx11::basic_string", align 8
  %ref.tmp = alloca %"class.std::allocator", align 1
  %ref.tmp4 = alloca %"class.std::allocator", align 1
  %0 = load i8, ptr %n, align 1
  %cmp = icmp eq i8 %0, 58
  %spec.select.idx = zext i1 %cmp to i64
  %spec.select = getelementptr inbounds i8, ptr %n, i64 %spec.select.idx
  call void @_ZNSaIcEC1Ev(ptr noundef nonnull align 1 dereferenceable(1) %ref.tmp) #15
  %call.i15 = invoke noundef ptr @_ZNSt7__cxx1112basic_stringIcSt11char_traitsIcESaIcEE13_M_local_dataEv(ptr noundef nonnull align 8 dereferenceable(32) %r)
          to label %call.i.noexc unwind label %lpad

call.i.noexc:                                     ; preds = %entry
  invoke void @_ZNSt7__cxx1112basic_stringIcSt11char_traitsIcESaIcEE12_Alloc_hiderC1EPcRKS3_(ptr noundef nonnull align 8 dereferenceable(8) %r, ptr noundef %call.i15, ptr noundef nonnull align 1 dereferenceable(1) %ref.tmp)
          to label %if.end.i unwind label %lpad

lpad.i:                                           ; preds = %if.end.i
  %1 = landingpad { ptr, i32 }
          cleanup
  call void @_ZNSaIcED2Ev(ptr noundef nonnull align 1 dereferenceable(1) %r) #15
  br label %lpad.body

if.end.i:                                         ; preds = %call.i.noexc
  %call.i.i = call noundef i64 @strlen(ptr noundef nonnull dereferenceable(1) %spec.select) #15
  %add.ptr.i = getelementptr inbounds i8, ptr %spec.select, i64 %call.i.i
  invoke void @_ZNSt7__cxx1112basic_stringIcSt11char_traitsIcESaIcEE12_M_constructIPKcEEvT_S8_St20forward_iterator_tag(ptr noundef nonnull align 8 dereferenceable(32) %r, ptr noundef nonnull %spec.select, ptr noundef nonnull %add.ptr.i)
          to label %invoke.cont unwind label %lpad.i

invoke.cont:                                      ; preds = %if.end.i
  call void @_ZNSaIcED1Ev(ptr noundef nonnull align 1 dereferenceable(1) %ref.tmp) #15
  %call = call noundef i64 @_ZNKSt7__cxx1112basic_stringIcSt11char_traitsIcESaIcEE4sizeEv(ptr noundef nonnull align 8 dereferenceable(32) %r) #15
  %2 = and i64 %call, 4294967295
  %cmp2 = icmp eq i64 %2, 0
  br i1 %cmp2, label %if.then3, label %for.body.preheader

for.body.preheader:                               ; preds = %invoke.cont
  %wide.trip.count = and i64 %call, 4294967295
  br label %for.body

if.then3:                                         ; preds = %invoke.cont
  call void @_ZNSaIcEC1Ev(ptr noundef nonnull align 1 dereferenceable(1) %ref.tmp4) #15
  %call.i21 = invoke noundef ptr @_ZNSt7__cxx1112basic_stringIcSt11char_traitsIcESaIcEE13_M_local_dataEv(ptr noundef nonnull align 8 dereferenceable(32) %agg.result)
          to label %call.i.noexc20 unwind label %lpad5

call.i.noexc20:                                   ; preds = %if.then3
  invoke void @_ZNSt7__cxx1112basic_stringIcSt11char_traitsIcESaIcEE12_Alloc_hiderC1EPcRKS3_(ptr noundef nonnull align 8 dereferenceable(8) %agg.result, ptr noundef %call.i21, ptr noundef nonnull align 1 dereferenceable(1) %ref.tmp4)
          to label %.noexc22 unwind label %lpad5

.noexc22:                                         ; preds = %call.i.noexc20
  invoke void @_ZNSt7__cxx1112basic_stringIcSt11char_traitsIcESaIcEE12_M_constructIPKcEEvT_S8_St20forward_iterator_tag(ptr noundef nonnull align 8 dereferenceable(32) %agg.result, ptr noundef nonnull @.str, ptr noundef nonnull getelementptr inbounds ([2 x i8], ptr @.str, i64 0, i64 1))
          to label %invoke.cont6 unwind label %lpad.i19

lpad.i19:                                         ; preds = %.noexc22
  %3 = landingpad { ptr, i32 }
          cleanup
  call void @_ZNSaIcED2Ev(ptr noundef nonnull align 1 dereferenceable(1) %agg.result) #15
  br label %lpad5.body

invoke.cont6:                                     ; preds = %.noexc22
  call void @_ZNSaIcED1Ev(ptr noundef nonnull align 1 dereferenceable(1) %ref.tmp4) #15
  br label %cleanup

lpad:                                             ; preds = %call.i.noexc, %entry
  %4 = landingpad { ptr, i32 }
          cleanup
  br label %lpad.body

lpad.body:                                        ; preds = %lpad.i, %lpad
  %eh.lpad-body = phi { ptr, i32 } [ %4, %lpad ], [ %1, %lpad.i ]
  call void @_ZNSaIcED1Ev(ptr noundef nonnull align 1 dereferenceable(1) %ref.tmp) #15
  br label %eh.resume

lpad5:                                            ; preds = %call.i.noexc20, %if.then3
  %5 = landingpad { ptr, i32 }
          cleanup
  br label %lpad5.body

lpad5.body:                                       ; preds = %lpad.i19, %lpad5
  %eh.lpad-body23 = phi { ptr, i32 } [ %5, %lpad5 ], [ %3, %lpad.i19 ]
  call void @_ZNSaIcED1Ev(ptr noundef nonnull align 1 dereferenceable(1) %ref.tmp4) #15
  br label %ehcleanup

for.body:                                         ; preds = %for.body.preheader, %for.inc
  %indvars.iv = phi i64 [ 0, %for.body.preheader ], [ %indvars.iv.next, %for.inc ]
  %call12 = invoke noundef nonnull align 1 dereferenceable(1) ptr @_ZNSt7__cxx1112basic_stringIcSt11char_traitsIcESaIcEEixEm(ptr noundef nonnull align 8 dereferenceable(32) %r, i64 noundef %indvars.iv)
          to label %invoke.cont11 unwind label %lpad10

invoke.cont11:                                    ; preds = %for.body
  %6 = load i8, ptr %call12, align 1
  %7 = add i8 %6, -65
  %or.cond = icmp ult i8 %7, 26
  br i1 %or.cond, label %if.then17, label %if.else

if.then17:                                        ; preds = %invoke.cont11
  %call22 = invoke noundef nonnull align 1 dereferenceable(1) ptr @_ZNSt7__cxx1112basic_stringIcSt11char_traitsIcESaIcEEixEm(ptr noundef nonnull align 8 dereferenceable(32) %r, i64 noundef %indvars.iv)
          to label %invoke.cont21 unwind label %lpad10

invoke.cont21:                                    ; preds = %if.then17
  %8 = or disjoint i8 %6, 32
  store i8 %8, ptr %call22, align 1
  br label %for.inc

lpad10:                                           ; preds = %if.then27, %if.then17, %for.body
  %9 = landingpad { ptr, i32 }
          cleanup
  br label %ehcleanup

if.else:                                          ; preds = %invoke.cont11
  switch i8 %6, label %for.inc [
    i8 58, label %if.then27
    i8 45, label %if.then27
  ]

if.then27:                                        ; preds = %if.else, %if.else
  %call30 = invoke noundef nonnull align 1 dereferenceable(1) ptr @_ZNSt7__cxx1112basic_stringIcSt11char_traitsIcESaIcEEixEm(ptr noundef nonnull align 8 dereferenceable(32) %r, i64 noundef %indvars.iv)
          to label %invoke.cont29 unwind label %lpad10

invoke.cont29:                                    ; preds = %if.then27
  store i8 95, ptr %call30, align 1
  br label %for.inc

for.inc:                                          ; preds = %if.else, %invoke.cont21, %invoke.cont29
  %indvars.iv.next = add nuw nsw i64 %indvars.iv, 1
  %exitcond.not = icmp eq i64 %indvars.iv.next, %wide.trip.count
  br i1 %exitcond.not, label %for.end, label %for.body, !llvm.loop !4

for.end:                                          ; preds = %for.inc
  call void @_ZNSt7__cxx1112basic_stringIcSt11char_traitsIcESaIcEEC1EOS4_(ptr noundef nonnull align 8 dereferenceable(32) %agg.result, ptr noundef nonnull align 8 dereferenceable(32) %r) #15
  br label %cleanup

cleanup:                                          ; preds = %for.end, %invoke.cont6
  call void @_ZNSt7__cxx1112basic_stringIcSt11char_traitsIcESaIcEED1Ev(ptr noundef nonnull align 8 dereferenceable(32) %r) #15
  ret void

ehcleanup:                                        ; preds = %lpad10, %lpad5.body
  %.pn = phi { ptr, i32 } [ %eh.lpad-body23, %lpad5.body ], [ %9, %lpad10 ]
  call void @_ZNSt7__cxx1112basic_stringIcSt11char_traitsIcESaIcEED1Ev(ptr noundef nonnull align 8 dereferenceable(32) %r) #15
  br label %eh.resume

eh.resume:                                        ; preds = %ehcleanup, %lpad.body
  %.pn.pn = phi { ptr, i32 } [ %.pn, %ehcleanup ], [ %eh.lpad-body, %lpad.body ]
  resume { ptr, i32 } %.pn.pn
}